; Function Attrs: mustprogress uwtable
define noundef zeroext i1 @_ZNK6casadi6SXElem11__nonzero__Ev(ptr nocapture noundef nonnull readonly align 8 dereferenceable(8) %0) local_unnamed_addr #6 align 2 personality ptr @__gxx_personality_v0 {
  %2 = alloca %"class.std::__cxx11::basic_string", align 8
  %3 = alloca %"class.std::__cxx11::basic_string", align 8
  %4 = alloca %"class.std::__cxx11::basic_string", align 8
  %5 = alloca %"class.std::__cxx11::basic_string", align 8
  %6 = alloca %"class.std::allocator.22", align 1
  %7 = alloca %"class.std::__cxx11::basic_string", align 8
  %8 = alloca %"class.std::__cxx11::basic_string", align 8
  %9 = alloca %"class.std::allocator.22", align 1
  %10 = alloca %"class.std::vector", align 8
  %11 = load ptr, ptr %0, align 8
  %12 = load ptr, ptr %11, align 8
  %13 = getelementptr inbounds i8, ptr %12, i64 16
  %14 = load ptr, ptr %13, align 8
  %15 = tail call noundef zeroext i1 %14(ptr noundef nonnull align 8 dereferenceable(16) %11)
  br i1 %15, label %16, label %23

16:                                               ; preds = %1
  %17 = load ptr, ptr %0, align 8
  %18 = load ptr, ptr %17, align 8
  %19 = getelementptr inbounds i8, ptr %18, i64 40
  %20 = load ptr, ptr %19, align 8
  %21 = tail call noundef zeroext i1 %20(ptr noundef nonnull align 8 dereferenceable(16) %17)
  %22 = xor i1 %21, true
  ret i1 %22

23:                                               ; preds = %1
  %24 = tail call ptr @__cxa_allocate_exception(i64 40) #25
  call void @_ZNSaIcEC1Ev(ptr noundef nonnull align 1 dereferenceable(1) %6) #25
  invoke void @_ZNSt7__cxx1112basic_stringIcSt11char_traitsIcESaIcEEC2IS3_EEPKcRKS3_(ptr noundef nonnull align 8 dereferenceable(32) %5, ptr noundef nonnull @.str.6, ptr noundef nonnull align 1 dereferenceable(1) %6)
          to label %25 unwind label %.thread

25:                                               ; preds = %23
  invoke void @_ZN6casadi9trim_pathERKNSt7__cxx1112basic_stringIcSt11char_traitsIcESaIcEEE(ptr dead_on_unwind nonnull writable sret(%"class.std::__cxx11::basic_string") align 8 %4, ptr noundef nonnull align 8 dereferenceable(32) %5)
          to label %26 unwind label %34

26:                                               ; preds = %25
  %27 = invoke noundef nonnull align 8 dereferenceable(32) ptr @_ZNSt7__cxx1112basic_stringIcSt11char_traitsIcESaIcEE6appendEPKc(ptr noundef nonnull align 8 dereferenceable(32) %4, ptr noundef nonnull @.str.3)
          to label %28 unwind label %36

28:                                               ; preds = %26
  call void @_ZNSt7__cxx1112basic_stringIcSt11char_traitsIcESaIcEEC1EOS4_(ptr noundef nonnull align 8 dereferenceable(32) %3, ptr noundef nonnull align 8 dereferenceable(32) %27) #25
  call void @_ZNSaIcEC1Ev(ptr noundef nonnull align 1 dereferenceable(1) %9) #25
  invoke void @_ZNSt7__cxx1112basic_stringIcSt11char_traitsIcESaIcEEC2IS3_EEPKcRKS3_(ptr noundef nonnull align 8 dereferenceable(32) %8, ptr noundef nonnull @.str.7, ptr noundef nonnull align 1 dereferenceable(1) %9)
          to label %29 unwind label %38

29:                                               ; preds = %28
  call void @llvm.memset.p0.i64(ptr noundef nonnull align 8 dereferenceable(24) %10, i8 0, i64 24, i1 false), !alias.scope !19
  invoke void @_ZN6casadi6fmtstrERKNSt7__cxx1112basic_stringIcSt11char_traitsIcESaIcEEERKSt6vectorIS5_SaIS5_EE(ptr dead_on_unwind nonnull writable sret(%"class.std::__cxx11::basic_string") align 8 %7, ptr noundef nonnull align 8 dereferenceable(32) %8, ptr noundef nonnull align 8 dereferenceable(24) %10)
          to label %30 unwind label %40

30:                                               ; preds = %29
  invoke void @_ZStplIcSt11char_traitsIcESaIcEENSt7__cxx1112basic_stringIT_T0_T1_EEOS8_S9_(ptr dead_on_unwind nonnull writable sret(%"class.std::__cxx11::basic_string") align 8 %2, ptr noundef nonnull align 8 dereferenceable(32) %3, ptr noundef nonnull align 8 dereferenceable(32) %7)
          to label %31 unwind label %42

31:                                               ; preds = %30
  invoke void @_ZN6casadi15CasadiExceptionC2ERKNSt7__cxx1112basic_stringIcSt11char_traitsIcESaIcEEE(ptr noundef nonnull align 8 dereferenceable(40) %24, ptr noundef nonnull align 8 dereferenceable(32) %2)
          to label %32 unwind label %44

32:                                               ; preds = %31
  invoke void @__cxa_throw(ptr nonnull %24, ptr nonnull @_ZTIN6casadi15CasadiExceptionE, ptr nonnull @_ZN6casadi15CasadiExceptionD2Ev) #26
          to label %53 unwind label %44

.thread:                                          ; preds = %23
  %33 = landingpad { ptr, i32 }
          cleanup
  call void @_ZNSaIcED1Ev(ptr noundef nonnull align 1 dereferenceable(1) %6) #25
  br label %51

34:                                               ; preds = %25
  %35 = landingpad { ptr, i32 }
          cleanup
  br label %50

36:                                               ; preds = %26
  %37 = landingpad { ptr, i32 }
          cleanup
  br label %49

38:                                               ; preds = %28
  %39 = landingpad { ptr, i32 }
          cleanup
  br label %48

40:                                               ; preds = %29
  %41 = landingpad { ptr, i32 }
          cleanup
  br label %47

42:                                               ; preds = %30
  %43 = landingpad { ptr, i32 }
          cleanup
  br label %46

44:                                               ; preds = %32, %31
  %.0 = phi i1 [ false, %32 ], [ true, %31 ]
  %45 = landingpad { ptr, i32 }
          cleanup
  call void @_ZNSt7__cxx1112basic_stringIcSt11char_traitsIcESaIcEED1Ev(ptr noundef nonnull align 8 dereferenceable(32) %2) #25
  br label %46

46:                                               ; preds = %44, %42
  %.pn = phi { ptr, i32 } [ %45, %44 ], [ %43, %42 ]
  %.1 = phi i1 [ %.0, %44 ], [ true, %42 ]
  call void @_ZNSt7__cxx1112basic_stringIcSt11char_traitsIcESaIcEED1Ev(ptr noundef nonnull align 8 dereferenceable(32) %7) #25
  br label %47

47:                                               ; preds = %46, %40
  %.pn.pn = phi { ptr, i32 } [ %.pn, %46 ], [ %41, %40 ]
  %.2 = phi i1 [ %.1, %46 ], [ true, %40 ]
  call void @_ZNSt6vectorINSt7__cxx1112basic_stringIcSt11char_traitsIcESaIcEEESaIS5_EED2Ev(ptr noundef nonnull align 8 dereferenceable(24) %10) #25
  call void @_ZNSt7__cxx1112basic_stringIcSt11char_traitsIcESaIcEED1Ev(ptr noundef nonnull align 8 dereferenceable(32) %8) #25
  br label %48

48:                                               ; preds = %47, %38
  %.pn.pn.pn = phi { ptr, i32 } [ %.pn.pn, %47 ], [ %39, %38 ]
  %.3 = phi i1 [ %.2, %47 ], [ true, %38 ]
  call void @_ZNSaIcED1Ev(ptr noundef nonnull align 1 dereferenceable(1) %9) #25
  call void @_ZNSt7__cxx1112basic_stringIcSt11char_traitsIcESaIcEED1Ev(ptr noundef nonnull align 8 dereferenceable(32) %3) #25
  br label %49

49:                                               ; preds = %48, %36
  %.pn.pn.pn.pn = phi { ptr, i32 } [ %.pn.pn.pn, %48 ], [ %37, %36 ]
  %.4 = phi i1 [ %.3, %48 ], [ true, %36 ]
  call void @_ZNSt7__cxx1112basic_stringIcSt11char_traitsIcESaIcEED1Ev(ptr noundef nonnull align 8 dereferenceable(32) %4) #25
  br label %50

50:                                               ; preds = %34, %49
  %.pn.pn.pn.pn.pn = phi { ptr, i32 } [ %.pn.pn.pn.pn, %49 ], [ %35, %34 ]
  %.5 = phi i1 [ %.4, %49 ], [ true, %34 ]
  call void @_ZNSt7__cxx1112basic_stringIcSt11char_traitsIcESaIcEED1Ev(ptr noundef nonnull align 8 dereferenceable(32) %5) #25
  call void @_ZNSaIcED1Ev(ptr noundef nonnull align 1 dereferenceable(1) %6) #25
  br i1 %.5, label %51, label %52

51:                                               ; preds = %.thread, %50
  %.pn.pn.pn.pn.pn.pn24 = phi { ptr, i32 } [ %33, %.thread ], [ %.pn.pn.pn.pn.pn, %50 ]
  call void @__cxa_free_exception(ptr %24) #25
  br label %52

52:                                               ; preds = %50, %51
  %.pn.pn.pn.pn.pn.pn23 = phi { ptr, i32 } [ %.pn.pn.pn.pn.pn, %50 ], [ %.pn.pn.pn.pn.pn.pn24, %51 ]
  resume { ptr, i32 } %.pn.pn.pn.pn.pn.pn23

53:                                               ; preds = %32
  unreachable
}